; Function Attrs: mustprogress uwtable
define noundef double @_ZNK8QuantLib24FdmHestonHullWhiteSolver7deltaAtEdddd(ptr noundef nonnull align 8 dereferenceable(192) %this, double noundef %s, double noundef %v, double noundef %r, double noundef %eps) local_unnamed_addr #10 align 2 {
entry:
  %add = fadd double %s, %eps
  %vtable.i = load ptr, ptr %this, align 8, !tbaa !33
  %vfn.i = getelementptr inbounds i8, ptr %vtable.i, i64 24
  %0 = load ptr, ptr %vfn.i, align 8
  tail call void %0(ptr noundef nonnull align 8 dereferenceable(12) %this)
  %call.i = tail call double @log(double noundef %add) #27, !tbaa !118
  %solver_.i = getelementptr inbounds nuw i8, ptr %this, i64 176
  %1 = load ptr, ptr %solver_.i, align 8, !tbaa !101
  %cmp.not.i.i = icmp eq ptr %1, null
  br i1 %cmp.not.i.i, label %cond.false.i.i, label %_ZNK8QuantLib24FdmHestonHullWhiteSolver7valueAtEddd.exit, !prof !69

cond.false.i.i:                                   ; preds = %entry
  tail call void @_ZN5boost16assertion_failedEPKcS1_S1_l(ptr noundef nonnull @.str.8, ptr noundef nonnull @__PRETTY_FUNCTION__._ZNK5boost10shared_ptrIN8QuantLib13Fdm3DimSolverEEptEv, ptr noundef nonnull @.str.9, i64 noundef 784)
  %.pre.i.i = load ptr, ptr %solver_.i, align 8, !tbaa !101
  br label %_ZNK8QuantLib24FdmHestonHullWhiteSolver7valueAtEddd.exit

_ZNK8QuantLib24FdmHestonHullWhiteSolver7valueAtEddd.exit: ; preds = %entry, %cond.false.i.i
  %2 = phi ptr [ %1, %entry ], [ %.pre.i.i, %cond.false.i.i ]
  %call3.i = tail call noundef double @_ZNK8QuantLib13Fdm3DimSolver13interpolateAtEddd(ptr noundef nonnull align 8 dereferenceable(328) %2, double noundef %call.i, double noundef %v, double noundef %r)
  %sub = fsub double %s, %eps
  %vtable.i6 = load ptr, ptr %this, align 8, !tbaa !33
  %vfn.i7 = getelementptr inbounds i8, ptr %vtable.i6, i64 24
  %3 = load ptr, ptr %vfn.i7, align 8
  tail call void %3(ptr noundef nonnull align 8 dereferenceable(12) %this)
  %call.i8 = tail call double @log(double noundef %sub) #27, !tbaa !118
  %4 = load ptr, ptr %solver_.i, align 8, !tbaa !101
  %cmp.not.i.i10 = icmp eq ptr %4, null
  br i1 %cmp.not.i.i10, label %cond.false.i.i12, label %_ZNK8QuantLib24FdmHestonHullWhiteSolver7valueAtEddd.exit14, !prof !69

cond.false.i.i12:                                 ; preds = %_ZNK8QuantLib24FdmHestonHullWhiteSolver7valueAtEddd.exit
  tail call void @_ZN5boost16assertion_failedEPKcS1_S1_l(ptr noundef nonnull @.str.8, ptr noundef nonnull @__PRETTY_FUNCTION__._ZNK5boost10shared_ptrIN8QuantLib13Fdm3DimSolverEEptEv, ptr noundef nonnull @.str.9, i64 noundef 784)
  %.pre.i.i13 = load ptr, ptr %solver_.i, align 8, !tbaa !101
  br label %_ZNK8QuantLib24FdmHestonHullWhiteSolver7valueAtEddd.exit14

_ZNK8QuantLib24FdmHestonHullWhiteSolver7valueAtEddd.exit14: ; preds = %_ZNK8QuantLib24FdmHestonHullWhiteSolver7valueAtEddd.exit, %cond.false.i.i12
  %5 = phi ptr [ %4, %_ZNK8QuantLib24FdmHestonHullWhiteSolver7valueAtEddd.exit ], [ %.pre.i.i13, %cond.false.i.i12 ]
  %call3.i11 = tail call noundef double @_ZNK8QuantLib13Fdm3DimSolver13interpolateAtEddd(ptr noundef nonnull align 8 dereferenceable(328) %5, double noundef %call.i8, double noundef %v, double noundef %r)
  %sub3 = fsub double %call3.i, %call3.i11
  %mul = fmul double %eps, 2.000000e+00
  %div = fdiv double %sub3, %mul
  ret double %div
}